target datalayout = "e-m:e-p270:32:32-p271:32:32-p272:64:64-i64:64-i128:128-f80:128-n8:16:32:64-S128"
target triple = "x86_64-pc-linux-gnu"

; Function Attrs: mustprogress nounwind uwtable
define void @_ZN5RarVM21FilterItanium_SetBitsEPhjjj(ptr noundef nonnull align 8 dereferenceable(40) %0, ptr noundef %1, i32 noundef %2, i32 noundef %3, i32 noundef %4) #0 align 2 {
  %6 = alloca ptr, align 8
  %7 = alloca ptr, align 8
  %8 = alloca i32, align 4
  %9 = alloca i32, align 4
  %10 = alloca i32, align 4
  %11 = alloca i32, align 4
  %12 = alloca i32, align 4
  %13 = alloca i32, align 4
  %14 = alloca i32, align 4
  store ptr %0, ptr %6, align 8
  store ptr %1, ptr %7, align 8
  store i32 %2, ptr %8, align 4
  store i32 %3, ptr %9, align 4
  store i32 %4, ptr %10, align 4
  %15 = load i32, ptr %9, align 4
  %16 = udiv i32 %15, 8
  store i32 %16, ptr %11, align 4
  %17 = load i32, ptr %9, align 4
  %18 = and i32 %17, 7
  store i32 %18, ptr %12, align 4
  %19 = load i32, ptr %10, align 4
  %20 = sub i32 32, %19
  %21 = lshr i32 -1, %20
  store i32 %21, ptr %13, align 4
  %22 = load i32, ptr %13, align 4
  %23 = load i32, ptr %12, align 4
  %24 = shl i32 %22, %23
  %25 = xor i32 %24, -1
  store i32 %25, ptr %13, align 4
  %26 = load i32, ptr %12, align 4
  %27 = load i32, ptr %8, align 4
  %28 = shl i32 %27, %26
  store i32 %28, ptr %8, align 4
  store i32 0, ptr %14, align 4
  br label %29

29:                                               ; preds = %60, %5
  %30 = load i32, ptr %14, align 4
  %31 = icmp ult i32 %30, 4
  br i1 %31, label %32, label %63

32:                                               ; preds = %29
  %33 = load i32, ptr %13, align 4
  %34 = load ptr, ptr %7, align 8
  %35 = load i32, ptr %11, align 4
  %36 = load i32, ptr %14, align 4
  %37 = add i32 %35, %36
  %38 = zext i32 %37 to i64
  %39 = getelementptr inbounds i8, ptr %34, i64 %38
  %40 = load i8, ptr %39, align 1
  %41 = zext i8 %40 to i32
  %42 = and i32 %41, %33
  %43 = trunc i32 %42 to i8
  store i8 %43, ptr %39, align 1
  %44 = load i32, ptr %8, align 4
  %45 = load ptr, ptr %7, align 8
  %46 = load i32, ptr %11, align 4
  %47 = load i32, ptr %14, align 4
  %48 = add i32 %46, %47
  %49 = zext i32 %48 to i64
  %50 = getelementptr inbounds i8, ptr %45, i64 %49
  %51 = load i8, ptr %50, align 1
  %52 = zext i8 %51 to i32
  %53 = or i32 %52, %44
  %54 = trunc i32 %53 to i8
  store i8 %54, ptr %50, align 1
  %55 = load i32, ptr %13, align 4
  %56 = lshr i32 %55, 8
  %57 = or i32 %56, -16777216
  store i32 %57, ptr %13, align 4
  %58 = load i32, ptr %8, align 4
  %59 = lshr i32 %58, 8
  store i32 %59, ptr %8, align 4
  br label %60

60:                                               ; preds = %32
  %61 = load i32, ptr %14, align 4
  %62 = add i32 %61, 1
  store i32 %62, ptr %14, align 4
  br label %29, !llvm.loop !18

63:                                               ; preds = %29
  ret void
}