; Function Attrs: mustprogress nofree norecurse nosync nounwind memory(argmem: readwrite) uwtable
define void @_ZN5RarVM21FilterItanium_SetBitsEPhjjj(ptr nocapture noundef nonnull readnone align 8 dereferenceable(40) %0, ptr nocapture noundef %1, i32 noundef %2, i32 noundef %3, i32 noundef %4) local_unnamed_addr #10 align 2 {
  %6 = lshr i32 %3, 3
  %7 = and i32 %3, 7
  %8 = sub i32 32, %4
  %9 = lshr i32 -1, %8
  %10 = shl i32 %9, %7
  %11 = xor i32 %10, -1
  %12 = shl i32 %2, %7
  %13 = zext nneg i32 %6 to i64
  %invariant.gep = getelementptr i8, ptr %1, i64 %13
  br label %14

14:                                               ; preds = %5, %14
  %indvars.iv = phi i64 [ 0, %5 ], [ %indvars.iv.next, %14 ]
  %.01821 = phi i32 [ %11, %5 ], [ %21, %14 ]
  %.01920 = phi i32 [ %12, %5 ], [ %22, %14 ]
  %gep = getelementptr i8, ptr %invariant.gep, i64 %indvars.iv
  %15 = load i8, ptr %gep, align 1
  %16 = trunc i32 %.01821 to i8
  %17 = and i8 %15, %16
  %18 = trunc i32 %.01920 to i8
  %19 = or i8 %17, %18
  store i8 %19, ptr %gep, align 1
  %20 = lshr i32 %.01821, 8
  %21 = or disjoint i32 %20, -16777216
  %22 = lshr i32 %.01920, 8
  %indvars.iv.next = add nuw nsw i64 %indvars.iv, 1
  %exitcond.not = icmp eq i64 %indvars.iv.next, 4
  br i1 %exitcond.not, label %23, label %14, !llvm.loop !6

23:                                               ; preds = %14
  ret void
}